ccopy_reg
_reconstructor
p0
(cPlayer
Ghost
p1
c__builtin__
object
p2
Ntp3
Rp4
(dp5
S'name'
p6
S'ads'
p7
sS'level'
p8
I-1
sS'frame'
p9
(lp10
(lp11
(S'X'
p12
tp13
a(g12
tp14
a(g12
tp15
a(g12
tp16
a(g12
tp17
a(S'r'
p18
tp19
a(g12
tp20
a(g12
tp21
a(g12
tp22
a(g12
tp23
a(g12
tp24
aa(lp25
(g12
tp26
a(g12
tp27
a(g12
tp28
a(g12
tp29
a(g12
tp30
a(g18
tp31
a(g12
tp32
a(g12
tp33
a(g12
tp34
a(g12
tp35
a(g12
tp36
aa(lp37
(g12
tp38
a(g12
tp39
a(g12
tp40
a(g12
tp41
a(g12
tp42
a(S'A'
p43
tp44
a(g12
tp45
a(g12
tp46
a(g12
tp47
a(g12
tp48
a(g12
tp49
aa(lp50
(g12
tp51
a(g12
tp52
a(g12
tp53
a(g12
tp54
a(g12
tp55
a(S'T'
p56
tp57
a(g12
tp58
a(g12
tp59
a(g12
tp60
a(g12
tp61
a(g12
tp62
aa(lp63
(g12
tp64
a(g12
tp65
a(g12
tp66
a(g12
tp67
a(g12
tp68
a(g18
tp69
a(g12
tp70
a(g12
tp71
a(g12
tp72
a(g12
tp73
a(g12
tp74
aa(lp75
(g18
tp76
a(g18
tp77
a(g18
tp78
a(g18
tp79
a(g18
tp80
a(S'G'
p81
tp82
a(g18
tp83
a(S'B'
p84
tp85
a(g43
tp86
a(g18
tp87
a(g18
tp88
aa(lp89
(g12
tp90
a(g12
tp91
a(g12
tp92
a(g12
tp93
a(g12
tp94
a(g18
tp95
a(g12
tp96
a(g12
tp97
a(g12
tp98
a(g12
tp99
a(g12
tp100
aa(lp101
(g12
tp102
a(g12
tp103
a(g12
tp104
a(g12
tp105
a(g12
tp106
a(g43
tp107
a(g12
tp108
a(g12
tp109
a(g12
tp110
a(g12
tp111
a(g12
tp112
aa(lp113
(g12
tp114
a(g12
tp115
a(g12
tp116
a(g12
tp117
a(g12
tp118
a(g18
tp119
a(g12
tp120
a(g12
tp121
a(g12
tp122
a(g12
tp123
a(g12
tp124
aa(lp125
(g12
tp126
a(g12
tp127
a(g12
tp128
a(g12
tp129
a(g12
tp130
a(g18
tp131
a(g12
tp132
a(g12
tp133
a(g12
tp134
a(g12
tp135
a(g12
tp136
aa(lp137
(g12
tp138
a(g12
tp139
a(g12
tp140
a(g12
tp141
a(g12
tp142
a(g18
tp143
a(g12
tp144
a(g12
tp145
a(g12
tp146
a(g12
tp147
a(g12
tp148
aasS'point'
p149
I0
sS'coordinate'
p150
g0
(cCoordinate
Coordinate
p151
g2
Ntp152
Rp153
(dp154
S'y'
p155
I30
sS'x'
p156
I30
sS'key'
p157
S'30.30'
p158
sbsS'type'
p159
S'Ghost'
p160
sb.