ccopy_reg
_reconstructor
p0
(cPlayer
Pacman
p1
c__builtin__
object
p2
Ntp3
Rp4
(dp5
S'name'
p6
S'asd'
p7
sS'level'
p8
I1
sS'frame'
p9
(lp10
(lp11
(S'X'
p12
tp13
a(g12
tp14
a(g12
tp15
a(g12
tp16
a(g12
tp17
a(g12
tp18
a(g12
tp19
a(S'r'
p20
tp21
a(g12
tp22
a(g12
tp23
a(g12
tp24
aa(lp25
(g12
tp26
a(g12
tp27
a(g12
tp28
a(g12
tp29
a(g12
tp30
a(g12
tp31
a(g12
tp32
a(g20
tp33
a(g12
tp34
a(g12
tp35
a(g12
tp36
aa(lp37
(g12
tp38
a(g12
tp39
a(g12
tp40
a(g12
tp41
a(g12
tp42
a(g12
tp43
a(g12
tp44
a(g20
tp45
a(g12
tp46
a(g12
tp47
a(g12
tp48
aa(lp49
(g12
tp50
a(g12
tp51
a(g12
tp52
a(g12
tp53
a(g12
tp54
a(g12
tp55
a(g12
tp56
a(g20
tp57
a(g12
tp58
a(g12
tp59
a(g12
tp60
aa(lp61
(g12
tp62
a(g12
tp63
a(g12
tp64
a(g12
tp65
a(g12
tp66
a(g12
tp67
a(g12
tp68
a(g20
tp69
a(g12
tp70
a(g12
tp71
a(g12
tp72
aa(lp73
(g20
tp74
a(g20
tp75
a(g20
tp76
a(g20
tp77
a(g20
tp78
a(S'P'
p79
tp80
a(g20
tp81
a(g20
tp82
a(g20
tp83
a(g20
tp84
a(g20
tp85
aa(lp86
(g12
tp87
a(g12
tp88
a(g12
tp89
a(g12
tp90
a(g12
tp91
a(g12
tp92
a(g12
tp93
a(g20
tp94
a(g12
tp95
a(g12
tp96
a(g12
tp97
aa(lp98
(g12
tp99
a(g12
tp100
a(g12
tp101
a(g12
tp102
a(g12
tp103
a(g12
tp104
a(g12
tp105
a(g20
tp106
a(g12
tp107
a(g12
tp108
a(g12
tp109
aa(lp110
(g12
tp111
a(g12
tp112
a(g12
tp113
a(g12
tp114
a(g12
tp115
a(g12
tp116
a(g12
tp117
a(g20
tp118
a(g12
tp119
a(g12
tp120
a(g12
tp121
aa(lp122
(g12
tp123
a(g12
tp124
a(g12
tp125
a(g12
tp126
a(g12
tp127
a(g12
tp128
a(g12
tp129
a(g20
tp130
a(g12
tp131
a(g12
tp132
a(g12
tp133
aa(lp134
(g12
tp135
a(g12
tp136
a(g12
tp137
a(g12
tp138
a(g12
tp139
a(g12
tp140
a(g12
tp141
a(g20
tp142
a(g12
tp143
a(g12
tp144
a(g12
tp145
aasS'point'
p146
I0
sS'coordinate'
p147
g0
(cCoordinate
Coordinate
p148
g2
Ntp149
Rp150
(dp151
S'y'
p152
I28
sS'x'
p153
I20
sS'key'
p154
S'20.28'
p155
sbsS'type'
p156
S'Pacman'
p157
sb.