ccopy_reg
_reconstructor
p0
(cPlayer
Ghost
p1
c__builtin__
object
p2
Ntp3
Rp4
(dp5
S'name'
p6
S'asd'
p7
sS'level'
p8
I-1
sS'frame'
p9
(lp10
(lp11
(S'X'
p12
tp13
a(g12
tp14
a(g12
tp15
a(g12
tp16
a(g12
tp17
a(S'r'
p18
tp19
a(g12
tp20
a(g12
tp21
a(g12
tp22
a(g12
tp23
a(g12
tp24
aa(lp25
(g18
tp26
a(g18
tp27
a(S'T'
p28
tp29
a(g18
tp30
a(g18
tp31
a(g18
tp32
a(g18
tp33
a(g18
tp34
a(g18
tp35
a(g18
tp36
a(g18
tp37
aa(lp38
(g12
tp39
a(g12
tp40
a(g12
tp41
a(g12
tp42
a(g12
tp43
a(g18
tp44
a(g12
tp45
a(g12
tp46
a(g12
tp47
a(g12
tp48
a(g12
tp49
aa(lp50
(g12
tp51
a(g12
tp52
a(g12
tp53
a(g12
tp54
a(g12
tp55
a(g18
tp56
a(g12
tp57
a(g12
tp58
a(g12
tp59
a(g12
tp60
a(g12
tp61
aa(lp62
(g12
tp63
a(g12
tp64
a(g12
tp65
a(g12
tp66
a(g12
tp67
a(g18
tp68
a(g12
tp69
a(g12
tp70
a(g12
tp71
a(g12
tp72
a(g12
tp73
aa(lp74
(g12
tp75
a(g12
tp76
a(g12
tp77
a(g12
tp78
a(g12
tp79
a(S'G'
p80
tp81
a(g12
tp82
a(g12
tp83
a(g12
tp84
a(g12
tp85
a(g12
tp86
aa(lp87
(g12
tp88
a(g12
tp89
a(g12
tp90
a(g12
tp91
a(g12
tp92
a(g18
tp93
a(g12
tp94
a(g12
tp95
a(g12
tp96
a(g12
tp97
a(g12
tp98
aa(lp99
(g12
tp100
a(g12
tp101
a(g12
tp102
a(g12
tp103
a(g12
tp104
a(S'A'
p105
tp106
a(g12
tp107
a(g12
tp108
a(g12
tp109
a(g12
tp110
a(g12
tp111
aa(lp112
(g12
tp113
a(g12
tp114
a(g12
tp115
a(g12
tp116
a(g12
tp117
a(g18
tp118
a(g12
tp119
a(g12
tp120
a(g12
tp121
a(g12
tp122
a(g12
tp123
aa(lp124
(g12
tp125
a(g12
tp126
a(g12
tp127
a(g12
tp128
a(g12
tp129
a(g18
tp130
a(g12
tp131
a(g12
tp132
a(g12
tp133
a(g12
tp134
a(g12
tp135
aa(lp136
(g18
tp137
a(g18
tp138
a(g18
tp139
a(g18
tp140
a(g18
tp141
a(g18
tp142
a(S'B'
p143
tp144
a(g18
tp145
a(g105
tp146
a(g18
tp147
a(g18
tp148
aasS'point'
p149
I0
sS'coordinate'
p150
g0
(cCoordinate
Coordinate
p151
g2
Ntp152
Rp153
(dp154
S'y'
p155
I20
sS'x'
p156
I34
sS'key'
p157
S'34.20'
p158
sbsS'type'
p159
S'Ghost'
p160
sb.