ccopy_reg
_reconstructor
p0
(cPlayer
Ghost
p1
c__builtin__
object
p2
Ntp3
Rp4
(dp5
S'name'
p6
S'asd'
p7
sS'level'
p8
I-1
sS'frame'
p9
(lp10
(lp11
(S'A'
p12
tp13
a(S'X'
p14
tp15
a(g14
tp16
a(g14
tp17
a(g14
tp18
a(g14
tp19
a(g14
tp20
aS'Q'
p21
ag21
ag21
ag21
aa(lp22
(S'r'
p23
tp24
a(g14
tp25
a(g14
tp26
a(g14
tp27
a(g14
tp28
a(g14
tp29
a(g14
tp30
ag21
ag21
ag21
ag21
aa(lp31
(g23
tp32
a(g14
tp33
a(g14
tp34
a(g14
tp35
a(g14
tp36
a(g14
tp37
a(g14
tp38
ag21
ag21
ag21
ag21
aa(lp39
(g23
tp40
a(g14
tp41
a(g14
tp42
a(g14
tp43
a(g14
tp44
a(g14
tp45
a(g14
tp46
ag21
ag21
ag21
ag21
aa(lp47
(g23
tp48
a(g14
tp49
a(g14
tp50
a(g14
tp51
a(g14
tp52
a(g14
tp53
a(g14
tp54
ag21
ag21
ag21
ag21
aa(lp55
(g23
tp56
a(g12
tp57
a(g23
tp58
a(g12
tp59
a(g23
tp60
a(g23
tp61
a(g23
tp62
ag21
ag21
ag21
ag21
aa(lp63
(g23
tp64
a(g14
tp65
a(g14
tp66
a(g14
tp67
a(g14
tp68
a(g14
tp69
a(g14
tp70
ag21
ag21
ag21
ag21
aa(lp71
(g23
tp72
a(g14
tp73
a(g14
tp74
a(g14
tp75
a(g14
tp76
a(g14
tp77
a(g14
tp78
ag21
ag21
ag21
ag21
aa(lp79
(g23
tp80
a(g14
tp81
a(g14
tp82
a(g14
tp83
a(g14
tp84
a(g14
tp85
a(g14
tp86
ag21
ag21
ag21
ag21
aa(lp87
(g23
tp88
a(g14
tp89
a(g14
tp90
a(g14
tp91
a(g14
tp92
a(g14
tp93
a(g14
tp94
ag21
ag21
ag21
ag21
aa(lp95
(g23
tp96
a(g14
tp97
a(g14
tp98
a(g14
tp99
a(g14
tp100
a(g14
tp101
a(g14
tp102
ag21
ag21
ag21
ag21
aasS'point'
p103
I0
sS'coordinate'
p104
g0
(cCoordinate
Coordinate
p105
g2
Ntp106
Rp107
(dp108
S'y'
p109
I1
sS'x'
p110
I30
sS'key'
p111
S'30.1'
p112
sbsS'type'
p113
S'Ghost'
p114
sb.