ccopy_reg
_reconstructor
p1
(cPlayer
Pacman
p2
c__builtin__
object
p3
NtRp4
(dp5
S'name'
p6
S'asd'
p7
sS'level'
p8
I1
sS'frame'
p9
(lp10
(lp11
(S'X'
tp12
a(S'X'
tp13
a(S'X'
tp14
a(S'X'
tp15
a(S'X'
tp16
a(S'r'
tp17
a(S'X'
tp18
a(S'X'
tp19
a(S'X'
tp20
a(S'X'
tp21
a(S'X'
tp22
aa(lp23
(S'X'
tp24
a(S'X'
tp25
a(S'X'
tp26
a(S'X'
tp27
a(S'X'
tp28
a(S'r'
tp29
a(S'X'
tp30
a(S'X'
tp31
a(S'X'
tp32
a(S'X'
tp33
a(S'X'
tp34
aa(lp35
(S'X'
tp36
a(S'X'
tp37
a(S'X'
tp38
a(S'X'
tp39
a(S'X'
tp40
a(S'B'
tp41
a(S'X'
tp42
a(S'X'
tp43
a(S'X'
tp44
a(S'X'
tp45
a(S'X'
tp46
aa(lp47
(S'X'
tp48
a(S'X'
tp49
a(S'X'
tp50
a(S'X'
tp51
a(S'X'
tp52
a(S'A'
tp53
a(S'X'
tp54
a(S'X'
tp55
a(S'X'
tp56
a(S'X'
tp57
a(S'X'
tp58
aa(lp59
(S'X'
tp60
a(S'X'
tp61
a(S'X'
tp62
a(S'X'
tp63
a(S'X'
tp64
a(S'r'
tp65
a(S'X'
tp66
a(S'X'
tp67
a(S'X'
tp68
a(S'X'
tp69
a(S'X'
tp70
aa(lp71
(S'B'
tp72
a(S'B'
tp73
a(S'r'
tp74
a(S'r'
tp75
a(S'T'
tp76
a(S'P'
tp77
a(S'r'
tp78
a(S'r'
tp79
a(S'r'
tp80
a(S'r'
tp81
a(S'r'
tp82
aa(lp83
(S'X'
tp84
a(S'X'
tp85
a(S'X'
tp86
a(S'X'
tp87
a(S'X'
tp88
a(S'r'
tp89
a(S'X'
tp90
a(S'X'
tp91
a(S'X'
tp92
a(S'X'
tp93
a(S'X'
tp94
aa(lp95
(S'X'
tp96
a(S'X'
tp97
a(S'X'
tp98
a(S'X'
tp99
a(S'X'
tp100
a(S'r'
tp101
a(S'X'
tp102
a(S'X'
tp103
a(S'X'
tp104
a(S'X'
tp105
a(S'X'
tp106
aa(lp107
(S'X'
tp108
a(S'X'
tp109
a(S'X'
tp110
a(S'X'
tp111
a(S'X'
tp112
a(S'r'
tp113
a(S'X'
tp114
a(S'X'
tp115
a(S'X'
tp116
a(S'X'
tp117
a(S'X'
tp118
aa(lp119
(S'X'
tp120
a(S'X'
tp121
a(S'X'
tp122
a(S'X'
tp123
a(S'X'
tp124
a(S'B'
tp125
a(S'X'
tp126
a(S'X'
tp127
a(S'X'
tp128
a(S'X'
tp129
a(S'X'
tp130
aa(lp131
(S'X'
tp132
a(S'X'
tp133
a(S'X'
tp134
a(S'X'
tp135
a(S'X'
tp136
a(S'r'
tp137
a(S'X'
tp138
a(S'X'
tp139
a(S'X'
tp140
a(S'X'
tp141
a(S'X'
tp142
aasS'point'
p143
I1
sS'coordinate'
p144
g1
(cCoordinate
Coordinate
p145
g3
NtRp146
(dp147
S'y'
I20
sS'x'
I10
sS'key'
p148
S'10.20'
p149
sbsS'type'
p150
S'Pacman'
p151
sb.