ccopy_reg
_reconstructor
p0
(cPlayer
Pacman
p1
c__builtin__
object
p2
Ntp3
Rp4
(dp5
S'name'
p6
S'erkan'
p7
sS'level'
p8
I1
sS'frame'
p9
(lp10
(lp11
(S'X'
p12
tp13
a(g12
tp14
a(S'r'
p15
tp16
a(g12
tp17
a(g12
tp18
a(g12
tp19
a(g12
tp20
a(g12
tp21
a(g12
tp22
a(g12
tp23
a(g12
tp24
aa(lp25
(g12
tp26
a(g12
tp27
a(g15
tp28
a(g12
tp29
a(g12
tp30
a(g12
tp31
a(g12
tp32
a(g12
tp33
a(g12
tp34
a(g12
tp35
a(g12
tp36
aa(lp37
(g12
tp38
a(g12
tp39
a(g15
tp40
a(g12
tp41
a(g12
tp42
a(g12
tp43
a(g12
tp44
a(g12
tp45
a(g12
tp46
a(g12
tp47
a(g12
tp48
aa(lp49
(g12
tp50
a(g12
tp51
a(S'B'
p52
tp53
a(g12
tp54
a(g12
tp55
a(g12
tp56
a(g12
tp57
a(g12
tp58
a(g12
tp59
a(g12
tp60
a(g12
tp61
aa(lp62
(g12
tp63
a(g12
tp64
a(g15
tp65
a(g12
tp66
a(g12
tp67
a(g12
tp68
a(g12
tp69
a(g12
tp70
a(g12
tp71
a(g12
tp72
a(g12
tp73
aa(lp74
(g15
tp75
a(g15
tp76
a(g15
tp77
a(g15
tp78
a(g15
tp79
a(S'P'
p80
tp81
a(g15
tp82
a(g15
tp83
a(g15
tp84
a(g15
tp85
a(g15
tp86
aa(lp87
(g12
tp88
a(g12
tp89
a(g15
tp90
a(g12
tp91
a(g12
tp92
a(g12
tp93
a(g12
tp94
a(g12
tp95
a(g12
tp96
a(g12
tp97
a(g12
tp98
aa(lp99
(g12
tp100
a(g12
tp101
a(g15
tp102
a(g12
tp103
a(g12
tp104
a(g12
tp105
a(g12
tp106
a(g12
tp107
a(g12
tp108
a(g12
tp109
a(g12
tp110
aa(lp111
(g12
tp112
a(g12
tp113
a(g15
tp114
a(g12
tp115
a(g12
tp116
a(g12
tp117
a(g12
tp118
a(g12
tp119
a(g12
tp120
a(g12
tp121
a(g12
tp122
aa(lp123
(g12
tp124
a(g12
tp125
a(g15
tp126
a(g12
tp127
a(g12
tp128
a(g12
tp129
a(g12
tp130
a(g12
tp131
a(g12
tp132
a(g12
tp133
a(g12
tp134
aa(lp135
(g12
tp136
a(g12
tp137
a(g15
tp138
a(g12
tp139
a(g12
tp140
a(g12
tp141
a(g12
tp142
a(g12
tp143
a(g12
tp144
a(g12
tp145
a(g12
tp146
aasS'point'
p147
I0
sS'coordinate'
p148
g0
(cCoordinate
Coordinate
p149
g2
Ntp150
Rp151
(dp152
S'y'
p153
I23
sS'x'
p154
I20
sS'key'
p155
S'20.23'
p156
sbsS'type'
p157
S'Pacman'
p158
sb.