ccopy_reg
_reconstructor
p0
(cPlayer
Ghost
p1
c__builtin__
object
p2
Ntp3
Rp4
(dp5
S'name'
p6
S'gfh'
p7
sS'level'
p8
I-1
sS'frame'
p9
(lp10
(lp11
(S'X'
p12
tp13
a(g12
tp14
a(g12
tp15
a(g12
tp16
a(g12
tp17
a(g12
tp18
a(S'r'
p19
tp20
a(g12
tp21
a(g12
tp22
a(g12
tp23
a(g12
tp24
aa(lp25
(g12
tp26
a(g12
tp27
a(g12
tp28
a(g12
tp29
a(g12
tp30
a(g12
tp31
a(g19
tp32
a(g12
tp33
a(g12
tp34
a(g12
tp35
a(g12
tp36
aa(lp37
(g12
tp38
a(g12
tp39
a(g12
tp40
a(g12
tp41
a(g12
tp42
a(g12
tp43
a(g19
tp44
a(g12
tp45
a(g12
tp46
a(g12
tp47
a(g12
tp48
aa(lp49
(g12
tp50
a(g12
tp51
a(g12
tp52
a(g12
tp53
a(g12
tp54
a(g12
tp55
a(g19
tp56
a(g12
tp57
a(g12
tp58
a(g12
tp59
a(g12
tp60
aa(lp61
(g12
tp62
a(g12
tp63
a(g12
tp64
a(g12
tp65
a(g12
tp66
a(g12
tp67
a(S'T'
p68
tp69
a(g12
tp70
a(g12
tp71
a(g12
tp72
a(g12
tp73
aa(lp74
(g19
tp75
a(g19
tp76
a(g19
tp77
a(g19
tp78
a(g19
tp79
a(S'G'
p80
tp81
a(g19
tp82
a(g19
tp83
a(g19
tp84
a(S'A'
p85
tp86
a(g19
tp87
aa(lp88
(g12
tp89
a(g12
tp90
a(g12
tp91
a(g12
tp92
a(g12
tp93
a(g12
tp94
a(g19
tp95
a(g12
tp96
a(g12
tp97
a(g12
tp98
a(g12
tp99
aa(lp100
(g12
tp101
a(g12
tp102
a(g12
tp103
a(g12
tp104
a(g12
tp105
a(g12
tp106
a(g19
tp107
a(g12
tp108
a(g12
tp109
a(g12
tp110
a(g12
tp111
aa(lp112
(g12
tp113
a(g12
tp114
a(g12
tp115
a(g12
tp116
a(g12
tp117
a(g12
tp118
a(g19
tp119
a(g12
tp120
a(g12
tp121
a(g12
tp122
a(g12
tp123
aa(lp124
(g12
tp125
a(g12
tp126
a(g12
tp127
a(g12
tp128
a(g12
tp129
a(g12
tp130
a(g19
tp131
a(g12
tp132
a(g12
tp133
a(g12
tp134
a(g12
tp135
aa(lp136
(g12
tp137
a(g12
tp138
a(g12
tp139
a(g12
tp140
a(g12
tp141
a(g12
tp142
a(g19
tp143
a(g12
tp144
a(g12
tp145
a(g12
tp146
a(g12
tp147
aasS'point'
p148
I0
sS'coordinate'
p149
g0
(cCoordinate
Coordinate
p150
g2
Ntp151
Rp152
(dp153
S'y'
p154
I19
sS'x'
p155
I20
sS'key'
p156
S'20.19'
p157
sbsS'type'
p158
S'Ghost'
p159
sb.