ccopy_reg
_reconstructor
p0
(cPlayer
Ghost
p1
c__builtin__
object
p2
Ntp3
Rp4
(dp5
S'name'
p6
S'jhfj'
p7
sS'level'
p8
I-1
sS'frame'
p9
(lp10
(lp11
(S'X'
p12
tp13
a(S'A'
p14
tp15
a(g12
tp16
a(g12
tp17
a(g12
tp18
a(g12
tp19
a(g12
tp20
a(g12
tp21
a(g12
tp22
a(g12
tp23
a(g12
tp24
aa(lp25
(g12
tp26
a(S'T'
p27
tp28
a(g12
tp29
a(g12
tp30
a(g12
tp31
a(g12
tp32
a(g12
tp33
a(g12
tp34
a(g12
tp35
a(g12
tp36
a(g12
tp37
aa(lp38
(g12
tp39
a(S'r'
p40
tp41
a(g12
tp42
a(g12
tp43
a(g12
tp44
a(g12
tp45
a(g12
tp46
a(g12
tp47
a(g12
tp48
a(g12
tp49
a(g12
tp50
aa(lp51
(g12
tp52
a(g14
tp53
a(g12
tp54
a(g12
tp55
a(g12
tp56
a(g12
tp57
a(g12
tp58
a(g12
tp59
a(g12
tp60
a(g12
tp61
a(g12
tp62
aa(lp63
(g12
tp64
a(g40
tp65
a(g12
tp66
a(g12
tp67
a(g12
tp68
a(g12
tp69
a(g12
tp70
a(g12
tp71
a(g12
tp72
a(g12
tp73
a(g12
tp74
aa(lp75
(g40
tp76
a(g40
tp77
a(g40
tp78
a(g40
tp79
a(g40
tp80
a(S'G'
p81
tp82
a(g40
tp83
a(g40
tp84
a(g40
tp85
a(g14
tp86
a(g40
tp87
aa(lp88
(g12
tp89
a(g40
tp90
a(g12
tp91
a(g12
tp92
a(g12
tp93
a(g12
tp94
a(g12
tp95
a(g12
tp96
a(g12
tp97
a(g12
tp98
a(g12
tp99
aa(lp100
(g12
tp101
a(g14
tp102
a(g12
tp103
a(g12
tp104
a(g12
tp105
a(g12
tp106
a(g12
tp107
a(g12
tp108
a(g12
tp109
a(g12
tp110
a(g12
tp111
aa(lp112
(g12
tp113
a(g40
tp114
a(g12
tp115
a(g12
tp116
a(g12
tp117
a(g12
tp118
a(g12
tp119
a(g12
tp120
a(g12
tp121
a(g12
tp122
a(g12
tp123
aa(lp124
(g12
tp125
a(g40
tp126
a(g12
tp127
a(g12
tp128
a(g12
tp129
a(g12
tp130
a(g12
tp131
a(g12
tp132
a(g12
tp133
a(g12
tp134
a(g12
tp135
aa(lp136
(g12
tp137
a(g40
tp138
a(g12
tp139
a(g12
tp140
a(g12
tp141
a(g12
tp142
a(g12
tp143
a(g12
tp144
a(g12
tp145
a(g12
tp146
a(g12
tp147
aasS'point'
p148
I0
sS'coordinate'
p149
g0
(cCoordinate
Coordinate
p150
g2
Ntp151
Rp152
(dp153
S'y'
p154
I24
sS'x'
p155
I30
sS'key'
p156
S'30.24'
p157
sbsS'type'
p158
S'Ghost'
p159
sb.